target datalayout = "e-m:e-p270:32:32-p271:32:32-p272:64:64-i64:64-i128:128-f80:128-n8:16:32:64-S128"
target triple = "x86_64-pc-linux-gnu"

%struct._GtkTreeIter = type { i32, ptr, ptr, ptr }
%struct.display_data = type { i64, i32, ptr, i8, i32, ptr, ptr, ptr, ptr, ptr, ptr, ptr, ptr }
%struct.popup_info = type { ptr, ptr, i32, i32, ptr, ptr, ptr, %struct._GtkTreeIter, ptr, ptr, i32, i8, ptr, ptr, i32, ptr, ptr, i32, i32 }

; Function Attrs: nounwind uwtable
define internal void @_popup_state_changed(ptr noundef %0, ptr noundef %1) #0 {
  %3 = alloca ptr, align 8
  %4 = alloca ptr, align 8
  %5 = alloca ptr, align 8
  store ptr %0, ptr %3, align 8
  store ptr %1, ptr %4, align 8
  call void @llvm.lifetime.start.p0(i64 8, ptr %5) #11
  %6 = load ptr, ptr %4, align 8
  %7 = getelementptr inbounds nuw %struct.display_data, ptr %6, i32 0, i32 11
  %8 = load ptr, ptr %7, align 8
  store ptr %8, ptr %5, align 8
  %9 = load ptr, ptr %4, align 8
  %10 = getelementptr inbounds nuw %struct.display_data, ptr %9, i32 0, i32 3
  %11 = load i8, ptr %10, align 8, !range !23, !noundef !24
  %12 = trunc i8 %11 to i1
  br i1 %12, label %13, label %16

13:                                               ; preds = %2
  %14 = load ptr, ptr %4, align 8
  %15 = getelementptr inbounds nuw %struct.display_data, ptr %14, i32 0, i32 3
  store i8 0, ptr %15, align 8
  br label %19

16:                                               ; preds = %2
  %17 = load ptr, ptr %4, align 8
  %18 = getelementptr inbounds nuw %struct.display_data, ptr %17, i32 0, i32 3
  store i8 1, ptr %18, align 8
  br label %19

19:                                               ; preds = %16, %13
  %20 = load ptr, ptr %5, align 8
  %21 = getelementptr inbounds nuw %struct.popup_info, ptr %20, i32 0, i32 17
  store i32 1, ptr %21, align 8
  %22 = load ptr, ptr %4, align 8
  %23 = getelementptr inbounds nuw %struct.display_data, ptr %22, i32 0, i32 5
  %24 = load ptr, ptr %23, align 8
  %25 = load ptr, ptr %4, align 8
  %26 = getelementptr inbounds nuw %struct.display_data, ptr %25, i32 0, i32 11
  %27 = load ptr, ptr %26, align 8
  call void %24(ptr noundef null, ptr noundef %27)
  call void @llvm.lifetime.end.p0(i64 8, ptr %5) #11
  ret void
}