; Function Attrs: nounwind uwtable
define internal void @_popup_state_changed(ptr readnone captures(none) %0, ptr noundef captures(none) %1) #2 {
  %3 = getelementptr inbounds nuw i8, ptr %1, i64 80
  %4 = load ptr, ptr %3, align 8
  %5 = getelementptr inbounds nuw i8, ptr %1, i64 24
  %6 = load i8, ptr %5, align 8, !range !21, !noundef !22
  %not. = xor i8 %6, 1
  store i8 %not., ptr %5, align 8
  %7 = getelementptr inbounds nuw i8, ptr %4, i64 144
  store i32 1, ptr %7, align 8
  %8 = getelementptr inbounds nuw i8, ptr %1, i64 32
  %9 = load ptr, ptr %8, align 8
  %10 = load ptr, ptr %3, align 8
  tail call void %9(ptr noundef null, ptr noundef %10) #16
  ret void
}